; Function Attrs: nounwind uwtable
define void @Wlc_NtkPrintNodeArray(ptr noundef readonly captures(none) %0, ptr noundef readonly captures(none) %1) local_unnamed_addr #3 {
  %3 = getelementptr i8, ptr %1, i64 4
  %.val9 = load i32, ptr %3, align 4
  %4 = icmp sgt i32 %.val9, 0
  br i1 %4, label %.lr.ph, label %.critedge

.lr.ph:                                           ; preds = %2
  %5 = getelementptr i8, ptr %1, i64 8
  %6 = getelementptr i8, ptr %0, i64 640
  br label %7

7:                                                ; preds = %.lr.ph, %7
  %indvars.iv = phi i64 [ 0, %.lr.ph ], [ %indvars.iv.next, %7 ]
  %.val7 = load ptr, ptr %5, align 8
  %8 = getelementptr inbounds nuw i32, ptr %.val7, i64 %indvars.iv
  %9 = load i32, ptr %8, align 4
  %.val8 = load ptr, ptr %6, align 8
  %10 = sext i32 %9 to i64
  %11 = getelementptr inbounds %struct.Wlc_Obj_t_, ptr %.val8, i64 %10
  tail call void @Wlc_NtkPrintNode(ptr noundef %0, ptr noundef %11)
  %indvars.iv.next = add nuw nsw i64 %indvars.iv, 1
  %.val = load i32, ptr %3, align 4
  %12 = sext i32 %.val to i64
  %13 = icmp slt i64 %indvars.iv.next, %12
  br i1 %13, label %7, label %.critedge, !llvm.loop !43

.critedge:                                        ; preds = %7, %2
  ret void
}